(lp0
(i__main__
Libro
p1
(dp2
S'ruta'
p3
S'/home/pi/Desktop/Dialogo/selene/Libros/Literatura/Libros_Descargados/Clark, Mary Higgins/La fuerza del engano/La fuerza del engano - Mary Higgins Clark.epub'
p4
sS'meGusta'
p5
I01
sS'numCapLeidos'
p6
I7
sba.